target datalayout = "e-m:e-p270:32:32-p271:32:32-p272:64:64-i64:64-i128:128-f80:128-n8:16:32:64-S128"
target triple = "x86_64-pc-linux-gnu"

@H5P_CLS_DATASET_XFER_ID_g = external global i64, align 8
@H5_libinit_g = external global i8, align 1
@H5_libterm_g = external global i8, align 1
@.str.1 = private unnamed_addr constant [101 x i8] c"generated/home/dtcxzyw/WorkSpace/Projects/compilers/llvm-opt-benchmark/bench/hdf5/hdf5/src/H5Pdxpl.c\00", align 1
@H5E_FUNC_g = external global i64, align 8
@H5E_CANTINIT_g = external global i64, align 8
@.str.2 = private unnamed_addr constant [30 x i8] c"library initialization failed\00", align 1
@H5E_CANTSET_g = external global i64, align 8
@.str.3 = private unnamed_addr constant [22 x i8] c"can't set API context\00", align 1
@H5E_ARGS_g = external global i64, align 8
@H5E_BADVALUE_g = external global i64, align 8
@H5E_ID_g = external global i64, align 8
@H5E_BADID_g = external global i64, align 8
@.str.5 = private unnamed_addr constant [25 x i8] c"can't find object for ID\00", align 1
@H5E_PLIST_g = external global i64, align 8
@__func__.H5Pset_buffer = private unnamed_addr constant [14 x i8] c"H5Pset_buffer\00", align 1
@.str.13 = private unnamed_addr constant [29 x i8] c"buffer size must not be zero\00", align 1
@.str.14 = private unnamed_addr constant [13 x i8] c"max_temp_buf\00", align 1
@.str.15 = private unnamed_addr constant [31 x i8] c"Can't set transfer buffer size\00", align 1
@.str.16 = private unnamed_addr constant [10 x i8] c"tconv_buf\00", align 1
@.str.17 = private unnamed_addr constant [42 x i8] c"Can't set transfer type conversion buffer\00", align 1
@.str.18 = private unnamed_addr constant [9 x i8] c"bkgr_buf\00", align 1
@.str.19 = private unnamed_addr constant [44 x i8] c"Can't set background type conversion buffer\00", align 1

; Function Attrs: nounwind uwtable
define i32 @H5Pset_buffer(i64 noundef %0, i64 noundef %1, ptr noundef %2, ptr noundef %3) #0 {
  %5 = alloca i64, align 8
  %6 = alloca i64, align 8
  %7 = alloca ptr, align 8
  %8 = alloca ptr, align 8
  %9 = alloca ptr, align 8
  %10 = alloca i32, align 4
  %11 = alloca i8, align 1
  %12 = alloca i8, align 1
  store i64 %0, ptr %5, align 8
  store i64 %1, ptr %6, align 8
  store ptr %2, ptr %7, align 8
  store ptr %3, ptr %8, align 8
  store i32 0, ptr %10, align 4
  store i8 0, ptr %11, align 1
  store i8 0, ptr %12, align 1
  %13 = load i8, ptr @H5_libinit_g, align 1
  %14 = trunc i8 %13 to i1
  br i1 %14, label %19, label %15

15:                                               ; preds = %4
  %16 = load i8, ptr @H5_libterm_g, align 1
  %17 = trunc i8 %16 to i1
  %18 = xor i1 %17, true
  br label %19

19:                                               ; preds = %15, %4
  %20 = phi i1 [ false, %4 ], [ %18, %15 ]
  %21 = xor i1 %20, true
  %22 = xor i1 %21, true
  %23 = zext i1 %22 to i32
  %24 = sext i32 %23 to i64
  %25 = icmp ne i64 %24, 0
  br i1 %25, label %26, label %50

26:                                               ; preds = %19
  %27 = call i32 @H5_init_library()
  %28 = icmp slt i32 %27, 0
  %29 = xor i1 %28, true
  %30 = xor i1 %29, true
  %31 = zext i1 %30 to i32
  %32 = sext i32 %31 to i64
  %33 = icmp ne i64 %32, 0
  br i1 %33, label %34, label %49

34:                                               ; preds = %26
  br label %35

35:                                               ; preds = %34
  br label %36

36:                                               ; preds = %35
  br label %37

37:                                               ; preds = %36
  %38 = load i64, ptr @H5E_FUNC_g, align 8
  %39 = load i64, ptr @H5E_CANTINIT_g, align 8
  %40 = call i32 (ptr, ptr, i32, i64, i64, ptr, ...) @H5E_printf_stack(ptr noundef @.str.1, ptr noundef @__func__.H5Pset_buffer, i32 noundef 1086, i64 noundef %38, i64 noundef %39, ptr noundef @.str.2)
  br label %41

41:                                               ; preds = %37
  store i8 1, ptr %12, align 1
  %42 = load i8, ptr %12, align 1
  %43 = trunc i8 %42 to i1
  %44 = zext i1 %43 to i8
  store i8 %44, ptr %12, align 1
  br label %45

45:                                               ; preds = %41
  br label %46

46:                                               ; preds = %45
  store i32 -1, ptr %10, align 4
  br label %171

47:                                               ; No predecessors!
  br label %48

48:                                               ; preds = %47
  br label %49

49:                                               ; preds = %48, %26
  br label %50

50:                                               ; preds = %49, %19
  %51 = call i32 @H5CX_push()
  %52 = icmp slt i32 %51, 0
  %53 = xor i1 %52, true
  %54 = xor i1 %53, true
  %55 = zext i1 %54 to i32
  %56 = sext i32 %55 to i64
  %57 = icmp ne i64 %56, 0
  br i1 %57, label %58, label %73

58:                                               ; preds = %50
  br label %59

59:                                               ; preds = %58
  br label %60

60:                                               ; preds = %59
  br label %61

61:                                               ; preds = %60
  %62 = load i64, ptr @H5E_FUNC_g, align 8
  %63 = load i64, ptr @H5E_CANTSET_g, align 8
  %64 = call i32 (ptr, ptr, i32, i64, i64, ptr, ...) @H5E_printf_stack(ptr noundef @.str.1, ptr noundef @__func__.H5Pset_buffer, i32 noundef 1086, i64 noundef %62, i64 noundef %63, ptr noundef @.str.3)
  br label %65

65:                                               ; preds = %61
  store i8 1, ptr %12, align 1
  %66 = load i8, ptr %12, align 1
  %67 = trunc i8 %66 to i1
  %68 = zext i1 %67 to i8
  store i8 %68, ptr %12, align 1
  br label %69

69:                                               ; preds = %65
  br label %70

70:                                               ; preds = %69
  store i32 -1, ptr %10, align 4
  br label %171

71:                                               ; No predecessors!
  br label %72

72:                                               ; preds = %71
  br label %74

73:                                               ; preds = %50
  store i8 1, ptr %11, align 1
  br label %74

74:                                               ; preds = %73, %72
  %75 = call i32 @H5E_clear_stack()
  %76 = load i64, ptr %6, align 8
  %77 = icmp eq i64 %76, 0
  br i1 %77, label %78, label %93

78:                                               ; preds = %74
  br label %79

79:                                               ; preds = %78
  br label %80

80:                                               ; preds = %79
  br label %81

81:                                               ; preds = %80
  %82 = load i64, ptr @H5E_ARGS_g, align 8
  %83 = load i64, ptr @H5E_BADVALUE_g, align 8
  %84 = call i32 (ptr, ptr, i32, i64, i64, ptr, ...) @H5E_printf_stack(ptr noundef @.str.1, ptr noundef @__func__.H5Pset_buffer, i32 noundef 1090, i64 noundef %82, i64 noundef %83, ptr noundef @.str.13)
  br label %85

85:                                               ; preds = %81
  store i8 1, ptr %12, align 1
  %86 = load i8, ptr %12, align 1
  %87 = trunc i8 %86 to i1
  %88 = zext i1 %87 to i8
  store i8 %88, ptr %12, align 1
  br label %89

89:                                               ; preds = %85
  br label %90

90:                                               ; preds = %89
  store i32 -1, ptr %10, align 4
  br label %171

91:                                               ; No predecessors!
  br label %92

92:                                               ; preds = %91
  br label %93

93:                                               ; preds = %92, %74
  %94 = load i64, ptr %5, align 8
  %95 = load i64, ptr @H5P_CLS_DATASET_XFER_ID_g, align 8
  %96 = call ptr @H5P_object_verify(i64 noundef %94, i64 noundef %95)
  store ptr %96, ptr %9, align 8
  %97 = icmp eq ptr null, %96
  br i1 %97, label %98, label %113

98:                                               ; preds = %93
  br label %99

99:                                               ; preds = %98
  br label %100

100:                                              ; preds = %99
  br label %101

101:                                              ; preds = %100
  %102 = load i64, ptr @H5E_ID_g, align 8
  %103 = load i64, ptr @H5E_BADID_g, align 8
  %104 = call i32 (ptr, ptr, i32, i64, i64, ptr, ...) @H5E_printf_stack(ptr noundef @.str.1, ptr noundef @__func__.H5Pset_buffer, i32 noundef 1094, i64 noundef %102, i64 noundef %103, ptr noundef @.str.5)
  br label %105

105:                                              ; preds = %101
  store i8 1, ptr %12, align 1
  %106 = load i8, ptr %12, align 1
  %107 = trunc i8 %106 to i1
  %108 = zext i1 %107 to i8
  store i8 %108, ptr %12, align 1
  br label %109

109:                                              ; preds = %105
  br label %110

110:                                              ; preds = %109
  store i32 -1, ptr %10, align 4
  br label %171

111:                                              ; No predecessors!
  br label %112

112:                                              ; preds = %111
  br label %113

113:                                              ; preds = %112, %93
  %114 = load ptr, ptr %9, align 8
  %115 = call i32 @H5P_set(ptr noundef %114, ptr noundef @.str.14, ptr noundef %6)
  %116 = icmp slt i32 %115, 0
  br i1 %116, label %117, label %132

117:                                              ; preds = %113
  br label %118

118:                                              ; preds = %117
  br label %119

119:                                              ; preds = %118
  br label %120

120:                                              ; preds = %119
  %121 = load i64, ptr @H5E_PLIST_g, align 8
  %122 = load i64, ptr @H5E_CANTSET_g, align 8
  %123 = call i32 (ptr, ptr, i32, i64, i64, ptr, ...) @H5E_printf_stack(ptr noundef @.str.1, ptr noundef @__func__.H5Pset_buffer, i32 noundef 1098, i64 noundef %121, i64 noundef %122, ptr noundef @.str.15)
  br label %124

124:                                              ; preds = %120
  store i8 1, ptr %12, align 1
  %125 = load i8, ptr %12, align 1
  %126 = trunc i8 %125 to i1
  %127 = zext i1 %126 to i8
  store i8 %127, ptr %12, align 1
  br label %128

128:                                              ; preds = %124
  br label %129

129:                                              ; preds = %128
  store i32 -1, ptr %10, align 4
  br label %171

130:                                              ; No predecessors!
  br label %131

131:                                              ; preds = %130
  br label %132

132:                                              ; preds = %131, %113
  %133 = load ptr, ptr %9, align 8
  %134 = call i32 @H5P_set(ptr noundef %133, ptr noundef @.str.16, ptr noundef %7)
  %135 = icmp slt i32 %134, 0
  br i1 %135, label %136, label %151

136:                                              ; preds = %132
  br label %137

137:                                              ; preds = %136
  br label %138

138:                                              ; preds = %137
  br label %139

139:                                              ; preds = %138
  %140 = load i64, ptr @H5E_PLIST_g, align 8
  %141 = load i64, ptr @H5E_CANTSET_g, align 8
  %142 = call i32 (ptr, ptr, i32, i64, i64, ptr, ...) @H5E_printf_stack(ptr noundef @.str.1, ptr noundef @__func__.H5Pset_buffer, i32 noundef 1100, i64 noundef %140, i64 noundef %141, ptr noundef @.str.17)
  br label %143

143:                                              ; preds = %139
  store i8 1, ptr %12, align 1
  %144 = load i8, ptr %12, align 1
  %145 = trunc i8 %144 to i1
  %146 = zext i1 %145 to i8
  store i8 %146, ptr %12, align 1
  br label %147

147:                                              ; preds = %143
  br label %148

148:                                              ; preds = %147
  store i32 -1, ptr %10, align 4
  br label %171

149:                                              ; No predecessors!
  br label %150

150:                                              ; preds = %149
  br label %151

151:                                              ; preds = %150, %132
  %152 = load ptr, ptr %9, align 8
  %153 = call i32 @H5P_set(ptr noundef %152, ptr noundef @.str.18, ptr noundef %8)
  %154 = icmp slt i32 %153, 0
  br i1 %154, label %155, label %170

155:                                              ; preds = %151
  br label %156

156:                                              ; preds = %155
  br label %157

157:                                              ; preds = %156
  br label %158

158:                                              ; preds = %157
  %159 = load i64, ptr @H5E_PLIST_g, align 8
  %160 = load i64, ptr @H5E_CANTSET_g, align 8
  %161 = call i32 (ptr, ptr, i32, i64, i64, ptr, ...) @H5E_printf_stack(ptr noundef @.str.1, ptr noundef @__func__.H5Pset_buffer, i32 noundef 1102, i64 noundef %159, i64 noundef %160, ptr noundef @.str.19)
  br label %162

162:                                              ; preds = %158
  store i8 1, ptr %12, align 1
  %163 = load i8, ptr %12, align 1
  %164 = trunc i8 %163 to i1
  %165 = zext i1 %164 to i8
  store i8 %165, ptr %12, align 1
  br label %166

166:                                              ; preds = %162
  br label %167

167:                                              ; preds = %166
  store i32 -1, ptr %10, align 4
  br label %171

168:                                              ; No predecessors!
  br label %169

169:                                              ; preds = %168
  br label %170

170:                                              ; preds = %169, %151
  br label %171

171:                                              ; preds = %170, %167, %148, %129, %110, %90, %70, %46
  %172 = load i8, ptr %11, align 1
  %173 = trunc i8 %172 to i1
  %174 = xor i1 %173, true
  %175 = xor i1 %174, true
  %176 = zext i1 %175 to i32
  %177 = sext i32 %176 to i64
  %178 = icmp ne i64 %177, 0
  br i1 %178, label %179, label %181

179:                                              ; preds = %171
  %180 = call i32 @H5CX_pop(i1 noundef zeroext true)
  store i8 0, ptr %11, align 1
  br label %181

181:                                              ; preds = %179, %171
  %182 = load i8, ptr %12, align 1
  %183 = trunc i8 %182 to i1
  %184 = xor i1 %183, true
  %185 = xor i1 %184, true
  %186 = zext i1 %185 to i32
  %187 = sext i32 %186 to i64
  %188 = icmp ne i64 %187, 0
  br i1 %188, label %189, label %191

189:                                              ; preds = %181
  %190 = call i32 @H5E_dump_api_stack()
  br label %191

191:                                              ; preds = %189, %181
  %192 = load i32, ptr %10, align 4
  ret i32 %192
}