; Function Attrs: nounwind uwtable
define range(i32 -1, 1) i32 @H5Pset_buffer(i64 noundef %0, i64 noundef %1, ptr noundef %2, ptr noundef %3) local_unnamed_addr #0 {
  %5 = alloca i64, align 8
  %6 = alloca ptr, align 8
  %7 = alloca ptr, align 8
  store i64 %1, ptr %5, align 8
  store ptr %2, ptr %6, align 8
  store ptr %3, ptr %7, align 8
  %8 = load i8, ptr @H5_libinit_g, align 1
  %9 = trunc i8 %8 to i1
  %10 = load i8, ptr @H5_libterm_g, align 1
  %11 = trunc i8 %10 to i1
  %12 = select i1 %9, i1 true, i1 %11
  br i1 %12, label %20, label %13

13:                                               ; preds = %4
  %14 = tail call i32 @H5_init_library() #8
  %15 = icmp slt i32 %14, 0
  br i1 %15, label %16, label %20

16:                                               ; preds = %13
  %17 = load i64, ptr @H5E_FUNC_g, align 8
  %18 = load i64, ptr @H5E_CANTINIT_g, align 8
  %19 = tail call i32 (ptr, ptr, i32, i64, i64, ptr, ...) @H5E_printf_stack(ptr noundef nonnull @.str.1, ptr noundef nonnull @__func__.H5Pset_buffer, i32 noundef 1086, i64 noundef %17, i64 noundef %18, ptr noundef nonnull @.str.2) #8
  br label %.thread24

20:                                               ; preds = %13, %4
  %21 = tail call i32 @H5CX_push() #8
  %22 = icmp slt i32 %21, 0
  br i1 %22, label %23, label %27

23:                                               ; preds = %20
  %24 = load i64, ptr @H5E_FUNC_g, align 8
  %25 = load i64, ptr @H5E_CANTSET_g, align 8
  %26 = tail call i32 (ptr, ptr, i32, i64, i64, ptr, ...) @H5E_printf_stack(ptr noundef nonnull @.str.1, ptr noundef nonnull @__func__.H5Pset_buffer, i32 noundef 1086, i64 noundef %24, i64 noundef %25, ptr noundef nonnull @.str.3) #8
  br label %.thread24

27:                                               ; preds = %20
  %28 = tail call i32 @H5E_clear_stack() #8
  %29 = icmp eq i64 %1, 0
  br i1 %29, label %30, label %34

30:                                               ; preds = %27
  %31 = load i64, ptr @H5E_ARGS_g, align 8
  %32 = load i64, ptr @H5E_BADVALUE_g, align 8
  %33 = tail call i32 (ptr, ptr, i32, i64, i64, ptr, ...) @H5E_printf_stack(ptr noundef nonnull @.str.1, ptr noundef nonnull @__func__.H5Pset_buffer, i32 noundef 1090, i64 noundef %31, i64 noundef %32, ptr noundef nonnull @.str.13) #8
  br label %.thread30

34:                                               ; preds = %27
  %35 = load i64, ptr @H5P_CLS_DATASET_XFER_ID_g, align 8
  %36 = tail call ptr @H5P_object_verify(i64 noundef %0, i64 noundef %35) #8
  %37 = icmp eq ptr %36, null
  br i1 %37, label %38, label %42

38:                                               ; preds = %34
  %39 = load i64, ptr @H5E_ID_g, align 8
  %40 = load i64, ptr @H5E_BADID_g, align 8
  %41 = tail call i32 (ptr, ptr, i32, i64, i64, ptr, ...) @H5E_printf_stack(ptr noundef nonnull @.str.1, ptr noundef nonnull @__func__.H5Pset_buffer, i32 noundef 1094, i64 noundef %39, i64 noundef %40, ptr noundef nonnull @.str.5) #8
  br label %.thread30

42:                                               ; preds = %34
  %43 = call i32 @H5P_set(ptr noundef nonnull %36, ptr noundef nonnull @.str.14, ptr noundef nonnull %5) #8
  %44 = icmp slt i32 %43, 0
  br i1 %44, label %45, label %49

45:                                               ; preds = %42
  %46 = load i64, ptr @H5E_PLIST_g, align 8
  %47 = load i64, ptr @H5E_CANTSET_g, align 8
  %48 = call i32 (ptr, ptr, i32, i64, i64, ptr, ...) @H5E_printf_stack(ptr noundef nonnull @.str.1, ptr noundef nonnull @__func__.H5Pset_buffer, i32 noundef 1098, i64 noundef %46, i64 noundef %47, ptr noundef nonnull @.str.15) #8
  br label %.thread30

49:                                               ; preds = %42
  %50 = call i32 @H5P_set(ptr noundef nonnull %36, ptr noundef nonnull @.str.16, ptr noundef nonnull %6) #8
  %51 = icmp slt i32 %50, 0
  br i1 %51, label %52, label %56

52:                                               ; preds = %49
  %53 = load i64, ptr @H5E_PLIST_g, align 8
  %54 = load i64, ptr @H5E_CANTSET_g, align 8
  %55 = call i32 (ptr, ptr, i32, i64, i64, ptr, ...) @H5E_printf_stack(ptr noundef nonnull @.str.1, ptr noundef nonnull @__func__.H5Pset_buffer, i32 noundef 1100, i64 noundef %53, i64 noundef %54, ptr noundef nonnull @.str.17) #8
  br label %.thread30

56:                                               ; preds = %49
  %57 = call i32 @H5P_set(ptr noundef nonnull %36, ptr noundef nonnull @.str.18, ptr noundef nonnull %7) #8
  %58 = icmp slt i32 %57, 0
  br i1 %58, label %59, label %64

59:                                               ; preds = %56
  %60 = load i64, ptr @H5E_PLIST_g, align 8
  %61 = load i64, ptr @H5E_CANTSET_g, align 8
  %62 = call i32 (ptr, ptr, i32, i64, i64, ptr, ...) @H5E_printf_stack(ptr noundef nonnull @.str.1, ptr noundef nonnull @__func__.H5Pset_buffer, i32 noundef 1102, i64 noundef %60, i64 noundef %61, ptr noundef nonnull @.str.19) #8
  br label %.thread30

.thread30:                                        ; preds = %59, %52, %45, %38, %30
  %63 = call i32 @H5CX_pop(i1 noundef zeroext true) #8
  br label %.thread24

64:                                               ; preds = %56
  %65 = call i32 @H5CX_pop(i1 noundef zeroext true) #8
  br label %67

.thread24:                                        ; preds = %23, %16, %.thread30
  %66 = call i32 @H5E_dump_api_stack() #8
  br label %67

67:                                               ; preds = %64, %.thread24
  %.0141927 = phi i32 [ -1, %.thread24 ], [ 0, %64 ]
  ret i32 %.0141927
}